target datalayout = "e-m:e-p270:32:32-p271:32:32-p272:64:64-i64:64-i128:128-f80:128-n8:16:32:64-S128"
target triple = "x86_64-unknown-linux-gnu"

%class.btConvex2dShape = type { %class.btConvexShape, ptr }
%class.btConvexShape = type { %class.btCollisionShape }
%class.btCollisionShape = type { ptr, i32, ptr, i32, i32 }
%class.btVector3 = type { [4 x float] }

; Function Attrs: mustprogress uwtable
define dso_local { <2 x float>, <2 x float> } @_ZNK15btConvex2dShape24localGetSupportingVertexERK9btVector3(ptr noundef nonnull align 8 dereferenceable(40) %this, ptr noundef nonnull align 4 dereferenceable(16) %vec) unnamed_addr #5 align 2 {
entry:
  %retval = alloca %class.btVector3, align 4
  %this.addr = alloca ptr, align 8
  %vec.addr = alloca ptr, align 8
  store ptr %this, ptr %this.addr, align 8
  store ptr %vec, ptr %vec.addr, align 8
  %this1 = load ptr, ptr %this.addr, align 8
  %m_childConvexShape = getelementptr inbounds %class.btConvex2dShape, ptr %this1, i32 0, i32 1
  %0 = load ptr, ptr %m_childConvexShape, align 8
  %1 = load ptr, ptr %vec.addr, align 8
  %vtable = load ptr, ptr %0, align 8
  %vfn = getelementptr inbounds ptr, ptr %vtable, i64 16
  %2 = load ptr, ptr %vfn, align 8
  %call = call { <2 x float>, <2 x float> } %2(ptr noundef nonnull align 8 dereferenceable(32) %0, ptr noundef nonnull align 4 dereferenceable(16) %1)
  %coerce.dive = getelementptr inbounds %class.btVector3, ptr %retval, i32 0, i32 0
  %3 = getelementptr inbounds { <2 x float>, <2 x float> }, ptr %coerce.dive, i32 0, i32 0
  %4 = extractvalue { <2 x float>, <2 x float> } %call, 0
  store <2 x float> %4, ptr %3, align 4
  %5 = getelementptr inbounds { <2 x float>, <2 x float> }, ptr %coerce.dive, i32 0, i32 1
  %6 = extractvalue { <2 x float>, <2 x float> } %call, 1
  store <2 x float> %6, ptr %5, align 4
  %coerce.dive2 = getelementptr inbounds %class.btVector3, ptr %retval, i32 0, i32 0
  %7 = load { <2 x float>, <2 x float> }, ptr %coerce.dive2, align 4
  ret { <2 x float>, <2 x float> } %7
}